ARM GAS  C:\Users\danza\AppData\Local\Temp\cc8AM8kX.s 			page 1


   1              		.syntax unified
   2              		.cpu cortex-m3
   3              		.fpu softvfp
   4              		.eabi_attribute 20, 1
   5              		.eabi_attribute 21, 1
   6              		.eabi_attribute 23, 3
   7              		.eabi_attribute 24, 1
   8              		.eabi_attribute 25, 1
   9              		.eabi_attribute 26, 1
  10              		.eabi_attribute 30, 1
  11              		.eabi_attribute 34, 1
  12              		.eabi_attribute 18, 4
  13              		.thumb
  14              		.syntax unified
  15              		.file	"REFRESH_ISR.c"
  16              		.text
  17              	.Ltext0:
  18              		.cfi_sections	.debug_frame
  19              		.global	__aeabi_i2d
  20              		.global	__aeabi_dmul
  21              		.global	__aeabi_d2uiz
  22              		.section	.text.REFRESH_ISR_Interrupt,"ax",%progbits
  23              		.align	2
  24              		.global	REFRESH_ISR_Interrupt
  25              		.thumb
  26              		.thumb_func
  27              		.type	REFRESH_ISR_Interrupt, %function
  28              	REFRESH_ISR_Interrupt:
  29              	.LFB3:
  30              		.file 1 "Generated_Source\\PSoC5\\REFRESH_ISR.c"
   1:Generated_Source\PSoC5/REFRESH_ISR.c **** /*******************************************************************************
   2:Generated_Source\PSoC5/REFRESH_ISR.c **** * File Name: REFRESH_ISR.c  
   3:Generated_Source\PSoC5/REFRESH_ISR.c **** * Version 1.70
   4:Generated_Source\PSoC5/REFRESH_ISR.c **** *
   5:Generated_Source\PSoC5/REFRESH_ISR.c **** *  Description:
   6:Generated_Source\PSoC5/REFRESH_ISR.c **** *   API for controlling the state of an interrupt.
   7:Generated_Source\PSoC5/REFRESH_ISR.c **** *
   8:Generated_Source\PSoC5/REFRESH_ISR.c **** *
   9:Generated_Source\PSoC5/REFRESH_ISR.c **** *  Note:
  10:Generated_Source\PSoC5/REFRESH_ISR.c **** *
  11:Generated_Source\PSoC5/REFRESH_ISR.c **** ********************************************************************************
  12:Generated_Source\PSoC5/REFRESH_ISR.c **** * Copyright 2008-2015, Cypress Semiconductor Corporation.  All rights reserved.
  13:Generated_Source\PSoC5/REFRESH_ISR.c **** * You may use this file only in accordance with the license, terms, conditions, 
  14:Generated_Source\PSoC5/REFRESH_ISR.c **** * disclaimers, and limitations in the end user license agreement accompanying 
  15:Generated_Source\PSoC5/REFRESH_ISR.c **** * the software package with which this file was provided.
  16:Generated_Source\PSoC5/REFRESH_ISR.c **** *******************************************************************************/
  17:Generated_Source\PSoC5/REFRESH_ISR.c **** 
  18:Generated_Source\PSoC5/REFRESH_ISR.c **** 
  19:Generated_Source\PSoC5/REFRESH_ISR.c **** #include <cydevice_trm.h>
  20:Generated_Source\PSoC5/REFRESH_ISR.c **** #include <CyLib.h>
  21:Generated_Source\PSoC5/REFRESH_ISR.c **** #include <REFRESH_ISR.h>
  22:Generated_Source\PSoC5/REFRESH_ISR.c **** #include "cyapicallbacks.h"
  23:Generated_Source\PSoC5/REFRESH_ISR.c **** 
  24:Generated_Source\PSoC5/REFRESH_ISR.c **** #if !defined(REFRESH_ISR__REMOVED) /* Check for removal by optimization */
  25:Generated_Source\PSoC5/REFRESH_ISR.c **** 
  26:Generated_Source\PSoC5/REFRESH_ISR.c **** /*******************************************************************************
  27:Generated_Source\PSoC5/REFRESH_ISR.c **** *  Place your includes, defines and code here 
ARM GAS  C:\Users\danza\AppData\Local\Temp\cc8AM8kX.s 			page 2


  28:Generated_Source\PSoC5/REFRESH_ISR.c **** ********************************************************************************/
  29:Generated_Source\PSoC5/REFRESH_ISR.c **** /* `#START REFRESH_ISR_intc` */
  30:Generated_Source\PSoC5/REFRESH_ISR.c ****     #include "Refresh_Timer.h"
  31:Generated_Source\PSoC5/REFRESH_ISR.c ****     #include "LCD.h"
  32:Generated_Source\PSoC5/REFRESH_ISR.c ****     #include "Control.h"
  33:Generated_Source\PSoC5/REFRESH_ISR.c ****     #include "CONTROL_ISR.h"
  34:Generated_Source\PSoC5/REFRESH_ISR.c ****     #include "PRS.h"
  35:Generated_Source\PSoC5/REFRESH_ISR.c ****     #include "PWM.h"
  36:Generated_Source\PSoC5/REFRESH_ISR.c **** 
  37:Generated_Source\PSoC5/REFRESH_ISR.c ****     int random;
  38:Generated_Source\PSoC5/REFRESH_ISR.c ****     int lives = 3;
  39:Generated_Source\PSoC5/REFRESH_ISR.c ****     int period;
  40:Generated_Source\PSoC5/REFRESH_ISR.c ****     char Player = LCD_CUSTOM_0;
  41:Generated_Source\PSoC5/REFRESH_ISR.c ****     char Obstacle = LCD_CUSTOM_1;
  42:Generated_Source\PSoC5/REFRESH_ISR.c ****     char Obstacle2 = LCD_CUSTOM_2;
  43:Generated_Source\PSoC5/REFRESH_ISR.c **** 
  44:Generated_Source\PSoC5/REFRESH_ISR.c ****     volatile int CharacterPos = 0;
  45:Generated_Source\PSoC5/REFRESH_ISR.c ****     
  46:Generated_Source\PSoC5/REFRESH_ISR.c ****     int Obstacle1Col = 7;
  47:Generated_Source\PSoC5/REFRESH_ISR.c ****     int Obstacle1Row = 0;
  48:Generated_Source\PSoC5/REFRESH_ISR.c ****     int Obstacle2Col = 10;
  49:Generated_Source\PSoC5/REFRESH_ISR.c ****     int Obstacle2Row = 1;
  50:Generated_Source\PSoC5/REFRESH_ISR.c ****     int Obstacle3Col = 13;
  51:Generated_Source\PSoC5/REFRESH_ISR.c ****     int Obstacle3Row = 0;
  52:Generated_Source\PSoC5/REFRESH_ISR.c ****     int Obstacle4Col = 16;
  53:Generated_Source\PSoC5/REFRESH_ISR.c ****     int Obstacle4Row = 1;
  54:Generated_Source\PSoC5/REFRESH_ISR.c ****     int Obstacle5Col = 19;
  55:Generated_Source\PSoC5/REFRESH_ISR.c ****     int Obstacle5Row = 0;
  56:Generated_Source\PSoC5/REFRESH_ISR.c ****     int Obstacle6Col = 21;
  57:Generated_Source\PSoC5/REFRESH_ISR.c ****     int Obstacle6Row = 1;
  58:Generated_Source\PSoC5/REFRESH_ISR.c ****     
  59:Generated_Source\PSoC5/REFRESH_ISR.c **** /* `#END` */
  60:Generated_Source\PSoC5/REFRESH_ISR.c **** 
  61:Generated_Source\PSoC5/REFRESH_ISR.c **** #ifndef CYINT_IRQ_BASE
  62:Generated_Source\PSoC5/REFRESH_ISR.c **** #define CYINT_IRQ_BASE      16
  63:Generated_Source\PSoC5/REFRESH_ISR.c **** #endif /* CYINT_IRQ_BASE */
  64:Generated_Source\PSoC5/REFRESH_ISR.c **** #ifndef CYINT_VECT_TABLE
  65:Generated_Source\PSoC5/REFRESH_ISR.c **** #define CYINT_VECT_TABLE    ((cyisraddress **) CYREG_NVIC_VECT_OFFSET)
  66:Generated_Source\PSoC5/REFRESH_ISR.c **** #endif /* CYINT_VECT_TABLE */
  67:Generated_Source\PSoC5/REFRESH_ISR.c **** 
  68:Generated_Source\PSoC5/REFRESH_ISR.c **** /* Declared in startup, used to set unused interrupts to. */
  69:Generated_Source\PSoC5/REFRESH_ISR.c **** CY_ISR_PROTO(IntDefaultHandler);
  70:Generated_Source\PSoC5/REFRESH_ISR.c **** 
  71:Generated_Source\PSoC5/REFRESH_ISR.c **** 
  72:Generated_Source\PSoC5/REFRESH_ISR.c **** /*******************************************************************************
  73:Generated_Source\PSoC5/REFRESH_ISR.c **** * Function Name: REFRESH_ISR_Start
  74:Generated_Source\PSoC5/REFRESH_ISR.c **** ********************************************************************************
  75:Generated_Source\PSoC5/REFRESH_ISR.c **** *
  76:Generated_Source\PSoC5/REFRESH_ISR.c **** * Summary:
  77:Generated_Source\PSoC5/REFRESH_ISR.c **** *  Set up the interrupt and enable it. This function disables the interrupt, 
  78:Generated_Source\PSoC5/REFRESH_ISR.c **** *  sets the default interrupt vector, sets the priority from the value in the
  79:Generated_Source\PSoC5/REFRESH_ISR.c **** *  Design Wide Resources Interrupt Editor, then enables the interrupt to the 
  80:Generated_Source\PSoC5/REFRESH_ISR.c **** *  interrupt controller.
  81:Generated_Source\PSoC5/REFRESH_ISR.c **** *
  82:Generated_Source\PSoC5/REFRESH_ISR.c **** * Parameters:  
  83:Generated_Source\PSoC5/REFRESH_ISR.c **** *   None
  84:Generated_Source\PSoC5/REFRESH_ISR.c **** *
ARM GAS  C:\Users\danza\AppData\Local\Temp\cc8AM8kX.s 			page 3


  85:Generated_Source\PSoC5/REFRESH_ISR.c **** * Return:
  86:Generated_Source\PSoC5/REFRESH_ISR.c **** *   None
  87:Generated_Source\PSoC5/REFRESH_ISR.c **** *
  88:Generated_Source\PSoC5/REFRESH_ISR.c **** *******************************************************************************/
  89:Generated_Source\PSoC5/REFRESH_ISR.c **** void REFRESH_ISR_Start(void)
  90:Generated_Source\PSoC5/REFRESH_ISR.c **** {
  91:Generated_Source\PSoC5/REFRESH_ISR.c ****     /* For all we know the interrupt is active. */
  92:Generated_Source\PSoC5/REFRESH_ISR.c ****     REFRESH_ISR_Disable();
  93:Generated_Source\PSoC5/REFRESH_ISR.c **** 
  94:Generated_Source\PSoC5/REFRESH_ISR.c ****     /* Set the ISR to point to the REFRESH_ISR Interrupt. */
  95:Generated_Source\PSoC5/REFRESH_ISR.c ****     REFRESH_ISR_SetVector(&REFRESH_ISR_Interrupt);
  96:Generated_Source\PSoC5/REFRESH_ISR.c **** 
  97:Generated_Source\PSoC5/REFRESH_ISR.c ****     /* Set the priority. */
  98:Generated_Source\PSoC5/REFRESH_ISR.c ****     REFRESH_ISR_SetPriority((uint8)REFRESH_ISR_INTC_PRIOR_NUMBER);
  99:Generated_Source\PSoC5/REFRESH_ISR.c **** 
 100:Generated_Source\PSoC5/REFRESH_ISR.c ****     /* Enable it. */
 101:Generated_Source\PSoC5/REFRESH_ISR.c ****     REFRESH_ISR_Enable();
 102:Generated_Source\PSoC5/REFRESH_ISR.c **** }
 103:Generated_Source\PSoC5/REFRESH_ISR.c **** 
 104:Generated_Source\PSoC5/REFRESH_ISR.c **** 
 105:Generated_Source\PSoC5/REFRESH_ISR.c **** /*******************************************************************************
 106:Generated_Source\PSoC5/REFRESH_ISR.c **** * Function Name: REFRESH_ISR_StartEx
 107:Generated_Source\PSoC5/REFRESH_ISR.c **** ********************************************************************************
 108:Generated_Source\PSoC5/REFRESH_ISR.c **** *
 109:Generated_Source\PSoC5/REFRESH_ISR.c **** * Summary:
 110:Generated_Source\PSoC5/REFRESH_ISR.c **** *  Sets up the interrupt and enables it. This function disables the interrupt,
 111:Generated_Source\PSoC5/REFRESH_ISR.c **** *  sets the interrupt vector based on the address passed in, sets the priority 
 112:Generated_Source\PSoC5/REFRESH_ISR.c **** *  from the value in the Design Wide Resources Interrupt Editor, then enables 
 113:Generated_Source\PSoC5/REFRESH_ISR.c **** *  the interrupt to the interrupt controller.
 114:Generated_Source\PSoC5/REFRESH_ISR.c **** *  
 115:Generated_Source\PSoC5/REFRESH_ISR.c **** *  When defining ISR functions, the CY_ISR and CY_ISR_PROTO macros should be 
 116:Generated_Source\PSoC5/REFRESH_ISR.c **** *  used to provide consistent definition across compilers:
 117:Generated_Source\PSoC5/REFRESH_ISR.c **** *  
 118:Generated_Source\PSoC5/REFRESH_ISR.c **** *  Function definition example:
 119:Generated_Source\PSoC5/REFRESH_ISR.c **** *   CY_ISR(MyISR)
 120:Generated_Source\PSoC5/REFRESH_ISR.c **** *   {
 121:Generated_Source\PSoC5/REFRESH_ISR.c **** *   }
 122:Generated_Source\PSoC5/REFRESH_ISR.c **** *   Function prototype example:
 123:Generated_Source\PSoC5/REFRESH_ISR.c **** *   CY_ISR_PROTO(MyISR);
 124:Generated_Source\PSoC5/REFRESH_ISR.c **** *
 125:Generated_Source\PSoC5/REFRESH_ISR.c **** * Parameters:  
 126:Generated_Source\PSoC5/REFRESH_ISR.c **** *   address: Address of the ISR to set in the interrupt vector table.
 127:Generated_Source\PSoC5/REFRESH_ISR.c **** *
 128:Generated_Source\PSoC5/REFRESH_ISR.c **** * Return:
 129:Generated_Source\PSoC5/REFRESH_ISR.c **** *   None
 130:Generated_Source\PSoC5/REFRESH_ISR.c **** *
 131:Generated_Source\PSoC5/REFRESH_ISR.c **** *******************************************************************************/
 132:Generated_Source\PSoC5/REFRESH_ISR.c **** void REFRESH_ISR_StartEx(cyisraddress address)
 133:Generated_Source\PSoC5/REFRESH_ISR.c **** {
 134:Generated_Source\PSoC5/REFRESH_ISR.c ****     /* For all we know the interrupt is active. */
 135:Generated_Source\PSoC5/REFRESH_ISR.c ****     REFRESH_ISR_Disable();
 136:Generated_Source\PSoC5/REFRESH_ISR.c **** 
 137:Generated_Source\PSoC5/REFRESH_ISR.c ****     /* Set the ISR to point to the REFRESH_ISR Interrupt. */
 138:Generated_Source\PSoC5/REFRESH_ISR.c ****     REFRESH_ISR_SetVector(address);
 139:Generated_Source\PSoC5/REFRESH_ISR.c **** 
 140:Generated_Source\PSoC5/REFRESH_ISR.c ****     /* Set the priority. */
 141:Generated_Source\PSoC5/REFRESH_ISR.c ****     REFRESH_ISR_SetPriority((uint8)REFRESH_ISR_INTC_PRIOR_NUMBER);
ARM GAS  C:\Users\danza\AppData\Local\Temp\cc8AM8kX.s 			page 4


 142:Generated_Source\PSoC5/REFRESH_ISR.c **** 
 143:Generated_Source\PSoC5/REFRESH_ISR.c ****     /* Enable it. */
 144:Generated_Source\PSoC5/REFRESH_ISR.c ****     REFRESH_ISR_Enable();
 145:Generated_Source\PSoC5/REFRESH_ISR.c **** }
 146:Generated_Source\PSoC5/REFRESH_ISR.c **** 
 147:Generated_Source\PSoC5/REFRESH_ISR.c **** 
 148:Generated_Source\PSoC5/REFRESH_ISR.c **** /*******************************************************************************
 149:Generated_Source\PSoC5/REFRESH_ISR.c **** * Function Name: REFRESH_ISR_Stop
 150:Generated_Source\PSoC5/REFRESH_ISR.c **** ********************************************************************************
 151:Generated_Source\PSoC5/REFRESH_ISR.c **** *
 152:Generated_Source\PSoC5/REFRESH_ISR.c **** * Summary:
 153:Generated_Source\PSoC5/REFRESH_ISR.c **** *   Disables and removes the interrupt.
 154:Generated_Source\PSoC5/REFRESH_ISR.c **** *
 155:Generated_Source\PSoC5/REFRESH_ISR.c **** * Parameters:  
 156:Generated_Source\PSoC5/REFRESH_ISR.c **** *   None
 157:Generated_Source\PSoC5/REFRESH_ISR.c **** *
 158:Generated_Source\PSoC5/REFRESH_ISR.c **** * Return:
 159:Generated_Source\PSoC5/REFRESH_ISR.c **** *   None
 160:Generated_Source\PSoC5/REFRESH_ISR.c **** *
 161:Generated_Source\PSoC5/REFRESH_ISR.c **** *******************************************************************************/
 162:Generated_Source\PSoC5/REFRESH_ISR.c **** void REFRESH_ISR_Stop(void)
 163:Generated_Source\PSoC5/REFRESH_ISR.c **** {
 164:Generated_Source\PSoC5/REFRESH_ISR.c ****     /* Disable this interrupt. */
 165:Generated_Source\PSoC5/REFRESH_ISR.c ****     REFRESH_ISR_Disable();
 166:Generated_Source\PSoC5/REFRESH_ISR.c **** 
 167:Generated_Source\PSoC5/REFRESH_ISR.c ****     /* Set the ISR to point to the passive one. */
 168:Generated_Source\PSoC5/REFRESH_ISR.c ****     REFRESH_ISR_SetVector(&IntDefaultHandler);
 169:Generated_Source\PSoC5/REFRESH_ISR.c **** }
 170:Generated_Source\PSoC5/REFRESH_ISR.c **** 
 171:Generated_Source\PSoC5/REFRESH_ISR.c **** 
 172:Generated_Source\PSoC5/REFRESH_ISR.c **** /*******************************************************************************
 173:Generated_Source\PSoC5/REFRESH_ISR.c **** * Function Name: REFRESH_ISR_Interrupt
 174:Generated_Source\PSoC5/REFRESH_ISR.c **** ********************************************************************************
 175:Generated_Source\PSoC5/REFRESH_ISR.c **** *
 176:Generated_Source\PSoC5/REFRESH_ISR.c **** * Summary:
 177:Generated_Source\PSoC5/REFRESH_ISR.c **** *   The default Interrupt Service Routine for REFRESH_ISR.
 178:Generated_Source\PSoC5/REFRESH_ISR.c **** *
 179:Generated_Source\PSoC5/REFRESH_ISR.c **** *   Add custom code between the coments to keep the next version of this file
 180:Generated_Source\PSoC5/REFRESH_ISR.c **** *   from over writting your code.
 181:Generated_Source\PSoC5/REFRESH_ISR.c **** *
 182:Generated_Source\PSoC5/REFRESH_ISR.c **** * Parameters:  
 183:Generated_Source\PSoC5/REFRESH_ISR.c **** *
 184:Generated_Source\PSoC5/REFRESH_ISR.c **** * Return:
 185:Generated_Source\PSoC5/REFRESH_ISR.c **** *   None
 186:Generated_Source\PSoC5/REFRESH_ISR.c **** *
 187:Generated_Source\PSoC5/REFRESH_ISR.c **** *******************************************************************************/
 188:Generated_Source\PSoC5/REFRESH_ISR.c **** CY_ISR(REFRESH_ISR_Interrupt)
 189:Generated_Source\PSoC5/REFRESH_ISR.c **** {
  31              		.loc 1 189 0
  32              		.cfi_startproc
  33              		@ args = 0, pretend = 0, frame = 0
  34              		@ frame_needed = 0, uses_anonymous_args = 0
  35 0000 38B5     		push	{r3, r4, r5, lr}
  36              		.cfi_def_cfa_offset 16
  37              		.cfi_offset 3, -16
  38              		.cfi_offset 4, -12
  39              		.cfi_offset 5, -8
ARM GAS  C:\Users\danza\AppData\Local\Temp\cc8AM8kX.s 			page 5


  40              		.cfi_offset 14, -4
 190:Generated_Source\PSoC5/REFRESH_ISR.c ****     #ifdef REFRESH_ISR_INTERRUPT_INTERRUPT_CALLBACK
 191:Generated_Source\PSoC5/REFRESH_ISR.c ****         REFRESH_ISR_Interrupt_InterruptCallback();
 192:Generated_Source\PSoC5/REFRESH_ISR.c ****     #endif /* REFRESH_ISR_INTERRUPT_INTERRUPT_CALLBACK */ 
 193:Generated_Source\PSoC5/REFRESH_ISR.c **** 
 194:Generated_Source\PSoC5/REFRESH_ISR.c ****     /*  Place your Interrupt code here. */
 195:Generated_Source\PSoC5/REFRESH_ISR.c ****     /* `#START REFRESH_ISR_Interrupt` */
 196:Generated_Source\PSoC5/REFRESH_ISR.c **** 
 197:Generated_Source\PSoC5/REFRESH_ISR.c ****     random = (PRS_Read() % 2);
  41              		.loc 1 197 0
  42 0002 FFF7FEFF 		bl	PRS_Read
  43              	.LVL0:
  44 0006 00F00100 		and	r0, r0, #1
  45 000a 894B     		ldr	r3, .L24+8
  46 000c 1860     		str	r0, [r3]
 198:Generated_Source\PSoC5/REFRESH_ISR.c **** 
 199:Generated_Source\PSoC5/REFRESH_ISR.c ****     
 200:Generated_Source\PSoC5/REFRESH_ISR.c ****     if(Obstacle1Col == 0)           // Obstacl 1 reaches left side of screen
  47              		.loc 1 200 0
  48 000e 894B     		ldr	r3, .L24+12
  49 0010 1B68     		ldr	r3, [r3]
  50 0012 2BB9     		cbnz	r3, .L2
 201:Generated_Source\PSoC5/REFRESH_ISR.c ****     {
 202:Generated_Source\PSoC5/REFRESH_ISR.c ****         Obstacle1Col = 15;          // Move obstacle1 back to right side of screen
  51              		.loc 1 202 0
  52 0014 0F22     		movs	r2, #15
  53 0016 874B     		ldr	r3, .L24+12
  54 0018 1A60     		str	r2, [r3]
 203:Generated_Source\PSoC5/REFRESH_ISR.c ****         Obstacle1Row = random;      // Randomly pick top or bottom for obstacle
  55              		.loc 1 203 0
  56 001a 874B     		ldr	r3, .L24+16
  57 001c 1860     		str	r0, [r3]
  58 001e 02E0     		b	.L3
  59              	.L2:
 204:Generated_Source\PSoC5/REFRESH_ISR.c ****     }
 205:Generated_Source\PSoC5/REFRESH_ISR.c ****     else                            // Obstacle1 not at the far left of the screen yet
 206:Generated_Source\PSoC5/REFRESH_ISR.c ****     {
 207:Generated_Source\PSoC5/REFRESH_ISR.c ****         Obstacle1Col--;             // Move obstacle1 to the left
  60              		.loc 1 207 0
  61 0020 013B     		subs	r3, r3, #1
  62 0022 844A     		ldr	r2, .L24+12
  63 0024 1360     		str	r3, [r2]
  64              	.L3:
 208:Generated_Source\PSoC5/REFRESH_ISR.c ****     }
 209:Generated_Source\PSoC5/REFRESH_ISR.c ****     if(Obstacle2Col == 0)           // Obstacle2 reaches left side of screen
  65              		.loc 1 209 0
  66 0026 834B     		ldr	r3, .L24+12
  67 0028 5B68     		ldr	r3, [r3, #4]
  68 002a 33B9     		cbnz	r3, .L4
 210:Generated_Source\PSoC5/REFRESH_ISR.c ****     {
 211:Generated_Source\PSoC5/REFRESH_ISR.c ****         Obstacle2Col = 15;          // Move obstacle2 back to right side of screen
  69              		.loc 1 211 0
  70 002c 814B     		ldr	r3, .L24+12
  71 002e 0F22     		movs	r2, #15
  72 0030 5A60     		str	r2, [r3, #4]
 212:Generated_Source\PSoC5/REFRESH_ISR.c ****         Obstacle2Row = random;      // Randomly pick top or bottom for obstacle
  73              		.loc 1 212 0
ARM GAS  C:\Users\danza\AppData\Local\Temp\cc8AM8kX.s 			page 6


  74 0032 7F4A     		ldr	r2, .L24+8
  75 0034 1268     		ldr	r2, [r2]
  76 0036 9A60     		str	r2, [r3, #8]
  77 0038 02E0     		b	.L5
  78              	.L4:
 213:Generated_Source\PSoC5/REFRESH_ISR.c ****     }
 214:Generated_Source\PSoC5/REFRESH_ISR.c ****     else                            // Obstacle2 not at the far left of the screen yet
 215:Generated_Source\PSoC5/REFRESH_ISR.c ****     {
 216:Generated_Source\PSoC5/REFRESH_ISR.c ****         Obstacle2Col--;             // Move obstacle2 to the left
  79              		.loc 1 216 0
  80 003a 013B     		subs	r3, r3, #1
  81 003c 7D4A     		ldr	r2, .L24+12
  82 003e 5360     		str	r3, [r2, #4]
  83              	.L5:
 217:Generated_Source\PSoC5/REFRESH_ISR.c ****     }
 218:Generated_Source\PSoC5/REFRESH_ISR.c ****     if(Obstacle3Col == 0)           // Obstacle3 reaches left side of screen
  84              		.loc 1 218 0
  85 0040 7C4B     		ldr	r3, .L24+12
  86 0042 DB68     		ldr	r3, [r3, #12]
  87 0044 3BB9     		cbnz	r3, .L6
 219:Generated_Source\PSoC5/REFRESH_ISR.c ****     {
 220:Generated_Source\PSoC5/REFRESH_ISR.c ****         Obstacle3Col = 15;          // Move obstacle3 back to right side of screen
  88              		.loc 1 220 0
  89 0046 0F22     		movs	r2, #15
  90 0048 7A4B     		ldr	r3, .L24+12
  91 004a DA60     		str	r2, [r3, #12]
 221:Generated_Source\PSoC5/REFRESH_ISR.c ****         Obstacle3Row = random;      // Randomly pick top or bottom for obstacle
  92              		.loc 1 221 0
  93 004c 784B     		ldr	r3, .L24+8
  94 004e 1A68     		ldr	r2, [r3]
  95 0050 794B     		ldr	r3, .L24+16
  96 0052 5A60     		str	r2, [r3, #4]
  97 0054 02E0     		b	.L7
  98              	.L6:
 222:Generated_Source\PSoC5/REFRESH_ISR.c ****     }
 223:Generated_Source\PSoC5/REFRESH_ISR.c ****     else                            // Obstacle3 not at the far left of the screen yet
 224:Generated_Source\PSoC5/REFRESH_ISR.c ****     {
 225:Generated_Source\PSoC5/REFRESH_ISR.c ****         Obstacle3Col--;             // Move obstacle3 to the left
  99              		.loc 1 225 0
 100 0056 013B     		subs	r3, r3, #1
 101 0058 764A     		ldr	r2, .L24+12
 102 005a D360     		str	r3, [r2, #12]
 103              	.L7:
 226:Generated_Source\PSoC5/REFRESH_ISR.c ****     }
 227:Generated_Source\PSoC5/REFRESH_ISR.c ****     if(Obstacle4Col == 0)           // Obstacle4 reaches left side of screen
 104              		.loc 1 227 0
 105 005c 754B     		ldr	r3, .L24+12
 106 005e 1B69     		ldr	r3, [r3, #16]
 107 0060 33B9     		cbnz	r3, .L8
 228:Generated_Source\PSoC5/REFRESH_ISR.c ****     {
 229:Generated_Source\PSoC5/REFRESH_ISR.c ****         Obstacle4Col = 15;          // Move obstacle4 back to right side of screen
 108              		.loc 1 229 0
 109 0062 744B     		ldr	r3, .L24+12
 110 0064 0F22     		movs	r2, #15
 111 0066 1A61     		str	r2, [r3, #16]
 230:Generated_Source\PSoC5/REFRESH_ISR.c ****         Obstacle4Row = random;      // Randomly pick top or bottom for obstacle
 112              		.loc 1 230 0
ARM GAS  C:\Users\danza\AppData\Local\Temp\cc8AM8kX.s 			page 7


 113 0068 714A     		ldr	r2, .L24+8
 114 006a 1268     		ldr	r2, [r2]
 115 006c 5A61     		str	r2, [r3, #20]
 116 006e 02E0     		b	.L9
 117              	.L8:
 231:Generated_Source\PSoC5/REFRESH_ISR.c ****     }
 232:Generated_Source\PSoC5/REFRESH_ISR.c ****     else                            // Obstacle4 not at the far left of the screen yet
 233:Generated_Source\PSoC5/REFRESH_ISR.c ****     {
 234:Generated_Source\PSoC5/REFRESH_ISR.c ****         Obstacle4Col--;             // Move obstacle4 to the left
 118              		.loc 1 234 0
 119 0070 013B     		subs	r3, r3, #1
 120 0072 704A     		ldr	r2, .L24+12
 121 0074 1361     		str	r3, [r2, #16]
 122              	.L9:
 235:Generated_Source\PSoC5/REFRESH_ISR.c ****     }
 236:Generated_Source\PSoC5/REFRESH_ISR.c ****     if(Obstacle5Col == 0)           // Obstacle5 reaches left side of screen
 123              		.loc 1 236 0
 124 0076 6F4B     		ldr	r3, .L24+12
 125 0078 9B69     		ldr	r3, [r3, #24]
 126 007a 3BB9     		cbnz	r3, .L10
 237:Generated_Source\PSoC5/REFRESH_ISR.c ****     {
 238:Generated_Source\PSoC5/REFRESH_ISR.c ****         Obstacle5Col = 15;          // Move obstacle5 back to right side of screen
 127              		.loc 1 238 0
 128 007c 0F22     		movs	r2, #15
 129 007e 6D4B     		ldr	r3, .L24+12
 130 0080 9A61     		str	r2, [r3, #24]
 239:Generated_Source\PSoC5/REFRESH_ISR.c ****         Obstacle5Row = random;      // Randomly pick top or bottom for obstacle
 131              		.loc 1 239 0
 132 0082 6B4B     		ldr	r3, .L24+8
 133 0084 1A68     		ldr	r2, [r3]
 134 0086 6C4B     		ldr	r3, .L24+16
 135 0088 9A60     		str	r2, [r3, #8]
 136 008a 02E0     		b	.L11
 137              	.L10:
 240:Generated_Source\PSoC5/REFRESH_ISR.c ****     }
 241:Generated_Source\PSoC5/REFRESH_ISR.c ****     else                            // Obstacle5 not at the far left of the screen yet
 242:Generated_Source\PSoC5/REFRESH_ISR.c ****     {
 243:Generated_Source\PSoC5/REFRESH_ISR.c ****         Obstacle5Col--;             // Move obstacle5 to the left
 138              		.loc 1 243 0
 139 008c 013B     		subs	r3, r3, #1
 140 008e 694A     		ldr	r2, .L24+12
 141 0090 9361     		str	r3, [r2, #24]
 142              	.L11:
 244:Generated_Source\PSoC5/REFRESH_ISR.c ****     }
 245:Generated_Source\PSoC5/REFRESH_ISR.c ****     if(Obstacle6Col == 0)           // Obstacle6 reaches left side of screen
 143              		.loc 1 245 0
 144 0092 684B     		ldr	r3, .L24+12
 145 0094 DB69     		ldr	r3, [r3, #28]
 146 0096 A3B9     		cbnz	r3, .L12
 246:Generated_Source\PSoC5/REFRESH_ISR.c ****     {
 247:Generated_Source\PSoC5/REFRESH_ISR.c ****         Obstacle6Col = 15;          // Move obstacle6 back to right side of screen
 147              		.loc 1 247 0
 148 0098 664B     		ldr	r3, .L24+12
 149 009a 0F22     		movs	r2, #15
 150 009c DA61     		str	r2, [r3, #28]
 248:Generated_Source\PSoC5/REFRESH_ISR.c ****         Obstacle6Row = random;      // Randomly pick top or bottom for obstacle
 151              		.loc 1 248 0
ARM GAS  C:\Users\danza\AppData\Local\Temp\cc8AM8kX.s 			page 8


 152 009e 644A     		ldr	r2, .L24+8
 153 00a0 1268     		ldr	r2, [r2]
 154 00a2 1A62     		str	r2, [r3, #32]
 249:Generated_Source\PSoC5/REFRESH_ISR.c ****         Refresh_Timer_WritePeriod(period*0.9);
 155              		.loc 1 249 0
 156 00a4 654B     		ldr	r3, .L24+20
 157 00a6 1868     		ldr	r0, [r3]
 158 00a8 FFF7FEFF 		bl	__aeabi_i2d
 159              	.LVL1:
 160 00ac 5EA3     		adr	r3, .L24
 161 00ae D3E90023 		ldrd	r2, [r3]
 162 00b2 FFF7FEFF 		bl	__aeabi_dmul
 163              	.LVL2:
 164 00b6 FFF7FEFF 		bl	__aeabi_d2uiz
 165              	.LVL3:
 166 00ba 80B2     		uxth	r0, r0
 167 00bc FFF7FEFF 		bl	Refresh_Timer_WritePeriod
 168              	.LVL4:
 169 00c0 02E0     		b	.L13
 170              	.L12:
 250:Generated_Source\PSoC5/REFRESH_ISR.c ****     }
 251:Generated_Source\PSoC5/REFRESH_ISR.c ****     else                            // Obstacle6 not at the far left of the screen yet
 252:Generated_Source\PSoC5/REFRESH_ISR.c ****     {
 253:Generated_Source\PSoC5/REFRESH_ISR.c ****         Obstacle6Col--;             // Move obstacle6 to the left
 171              		.loc 1 253 0
 172 00c2 013B     		subs	r3, r3, #1
 173 00c4 5B4A     		ldr	r2, .L24+12
 174 00c6 D361     		str	r3, [r2, #28]
 175              	.L13:
 254:Generated_Source\PSoC5/REFRESH_ISR.c ****     }
 255:Generated_Source\PSoC5/REFRESH_ISR.c ****     
 256:Generated_Source\PSoC5/REFRESH_ISR.c ****     if (lives > 0)
 176              		.loc 1 256 0
 177 00c8 5A4B     		ldr	r3, .L24+12
 178 00ca 5B6A     		ldr	r3, [r3, #36]
 179 00cc 002B     		cmp	r3, #0
 180 00ce 40F39080 		ble	.L14
 257:Generated_Source\PSoC5/REFRESH_ISR.c ****     {
 258:Generated_Source\PSoC5/REFRESH_ISR.c ****     
 259:Generated_Source\PSoC5/REFRESH_ISR.c ****         if( (Obstacle6Row == CharacterPos && Obstacle6Col == 0) ||
 181              		.loc 1 259 0
 182 00d2 584B     		ldr	r3, .L24+12
 183 00d4 1A6A     		ldr	r2, [r3, #32]
 184 00d6 584B     		ldr	r3, .L24+16
 185 00d8 DB68     		ldr	r3, [r3, #12]
 186 00da 9A42     		cmp	r2, r3
 187 00dc 03D1     		bne	.L15
 188              		.loc 1 259 0 is_stmt 0 discriminator 1
 189 00de 554B     		ldr	r3, .L24+12
 190 00e0 DB69     		ldr	r3, [r3, #28]
 191 00e2 002B     		cmp	r3, #0
 192 00e4 29D0     		beq	.L16
 193              	.L15:
 260:Generated_Source\PSoC5/REFRESH_ISR.c ****             (Obstacle5Row == CharacterPos && Obstacle5Col == 0) ||
 194              		.loc 1 260 0 is_stmt 1 discriminator 3
 195 00e6 544B     		ldr	r3, .L24+16
 196 00e8 9A68     		ldr	r2, [r3, #8]
ARM GAS  C:\Users\danza\AppData\Local\Temp\cc8AM8kX.s 			page 9


 197 00ea DB68     		ldr	r3, [r3, #12]
 259:Generated_Source\PSoC5/REFRESH_ISR.c ****             (Obstacle5Row == CharacterPos && Obstacle5Col == 0) ||
 198              		.loc 1 259 0 discriminator 3
 199 00ec 9A42     		cmp	r2, r3
 200 00ee 02D1     		bne	.L17
 201              		.loc 1 260 0
 202 00f0 504B     		ldr	r3, .L24+12
 203 00f2 9B69     		ldr	r3, [r3, #24]
 204 00f4 0BB3     		cbz	r3, .L16
 205              	.L17:
 261:Generated_Source\PSoC5/REFRESH_ISR.c ****             (Obstacle4Row == CharacterPos && Obstacle4Col == 0) ||
 206              		.loc 1 261 0 discriminator 1
 207 00f6 4F4B     		ldr	r3, .L24+12
 208 00f8 5A69     		ldr	r2, [r3, #20]
 209 00fa 4F4B     		ldr	r3, .L24+16
 210 00fc DB68     		ldr	r3, [r3, #12]
 260:Generated_Source\PSoC5/REFRESH_ISR.c ****             (Obstacle5Row == CharacterPos && Obstacle5Col == 0) ||
 211              		.loc 1 260 0 discriminator 1
 212 00fe 9A42     		cmp	r2, r3
 213 0100 02D1     		bne	.L18
 214              		.loc 1 261 0
 215 0102 4C4B     		ldr	r3, .L24+12
 216 0104 1B69     		ldr	r3, [r3, #16]
 217 0106 C3B1     		cbz	r3, .L16
 218              	.L18:
 262:Generated_Source\PSoC5/REFRESH_ISR.c ****             (Obstacle3Row == CharacterPos && Obstacle3Col == 0) ||
 219              		.loc 1 262 0 discriminator 1
 220 0108 4B4B     		ldr	r3, .L24+16
 221 010a 5A68     		ldr	r2, [r3, #4]
 222 010c DB68     		ldr	r3, [r3, #12]
 261:Generated_Source\PSoC5/REFRESH_ISR.c ****             (Obstacle4Row == CharacterPos && Obstacle4Col == 0) ||
 223              		.loc 1 261 0 discriminator 1
 224 010e 9A42     		cmp	r2, r3
 225 0110 02D1     		bne	.L19
 226              		.loc 1 262 0
 227 0112 484B     		ldr	r3, .L24+12
 228 0114 DB68     		ldr	r3, [r3, #12]
 229 0116 83B1     		cbz	r3, .L16
 230              	.L19:
 263:Generated_Source\PSoC5/REFRESH_ISR.c ****             (Obstacle2Row == CharacterPos && Obstacle2Col == 0) ||
 231              		.loc 1 263 0 discriminator 1
 232 0118 464B     		ldr	r3, .L24+12
 233 011a 9A68     		ldr	r2, [r3, #8]
 234 011c 464B     		ldr	r3, .L24+16
 235 011e DB68     		ldr	r3, [r3, #12]
 262:Generated_Source\PSoC5/REFRESH_ISR.c ****             (Obstacle3Row == CharacterPos && Obstacle3Col == 0) ||
 236              		.loc 1 262 0 discriminator 1
 237 0120 9A42     		cmp	r2, r3
 238 0122 02D1     		bne	.L20
 239              		.loc 1 263 0
 240 0124 434B     		ldr	r3, .L24+12
 241 0126 5B68     		ldr	r3, [r3, #4]
 242 0128 3BB1     		cbz	r3, .L16
 243              	.L20:
 264:Generated_Source\PSoC5/REFRESH_ISR.c ****             (Obstacle1Row == CharacterPos && Obstacle1Col == 0)     )
 244              		.loc 1 264 0 discriminator 1
 245 012a 434B     		ldr	r3, .L24+16
ARM GAS  C:\Users\danza\AppData\Local\Temp\cc8AM8kX.s 			page 10


 246 012c 1A68     		ldr	r2, [r3]
 247 012e DB68     		ldr	r3, [r3, #12]
 263:Generated_Source\PSoC5/REFRESH_ISR.c ****             (Obstacle2Row == CharacterPos && Obstacle2Col == 0) ||
 248              		.loc 1 263 0 discriminator 1
 249 0130 9A42     		cmp	r2, r3
 250 0132 1DD1     		bne	.L21
 251              		.loc 1 264 0
 252 0134 3F4B     		ldr	r3, .L24+12
 253 0136 1B68     		ldr	r3, [r3]
 254 0138 D3B9     		cbnz	r3, .L21
 255              	.L16:
 265:Generated_Source\PSoC5/REFRESH_ISR.c ****         {   
 266:Generated_Source\PSoC5/REFRESH_ISR.c ****             /* If obstacle and player are in same spot,
 267:Generated_Source\PSoC5/REFRESH_ISR.c ****             reduce lives by 1 and display # lives left */
 268:Generated_Source\PSoC5/REFRESH_ISR.c ****             PWM_Start();            // Play sound player loses a live
 256              		.loc 1 268 0
 257 013a FFF7FEFF 		bl	PWM_Start
 258              	.LVL5:
 269:Generated_Source\PSoC5/REFRESH_ISR.c ****             lives--;
 259              		.loc 1 269 0
 260 013e 3D4C     		ldr	r4, .L24+12
 261 0140 636A     		ldr	r3, [r4, #36]
 262 0142 013B     		subs	r3, r3, #1
 263 0144 6362     		str	r3, [r4, #36]
 270:Generated_Source\PSoC5/REFRESH_ISR.c ****             LCD_ClearDisplay();
 264              		.loc 1 270 0
 265 0146 0120     		movs	r0, #1
 266 0148 FFF7FEFF 		bl	LCD_WriteControl
 267              	.LVL6:
 271:Generated_Source\PSoC5/REFRESH_ISR.c ****             LCD_Position(0,0);
 268              		.loc 1 271 0
 269 014c 0021     		movs	r1, #0
 270 014e 0846     		mov	r0, r1
 271 0150 FFF7FEFF 		bl	LCD_Position
 272              	.LVL7:
 272:Generated_Source\PSoC5/REFRESH_ISR.c ****             LCD_PrintString("OOF!");
 273              		.loc 1 272 0
 274 0154 3A48     		ldr	r0, .L24+24
 275 0156 FFF7FEFF 		bl	LCD_PrintString
 276              	.LVL8:
 273:Generated_Source\PSoC5/REFRESH_ISR.c ****             LCD_Position(1,0);
 277              		.loc 1 273 0
 278 015a 0021     		movs	r1, #0
 279 015c 0120     		movs	r0, #1
 280 015e FFF7FEFF 		bl	LCD_Position
 281              	.LVL9:
 274:Generated_Source\PSoC5/REFRESH_ISR.c ****             LCD_PrintString("Lives: ");
 282              		.loc 1 274 0
 283 0162 3848     		ldr	r0, .L24+28
 284 0164 FFF7FEFF 		bl	LCD_PrintString
 285              	.LVL10:
 275:Generated_Source\PSoC5/REFRESH_ISR.c ****             LCD_PrintDecUint16(lives);
 286              		.loc 1 275 0
 287 0168 A08C     		ldrh	r0, [r4, #36]
 288 016a FFF7FEFF 		bl	LCD_PrintU32Number
 289              	.LVL11:
 290 016e 53E0     		b	.L22
ARM GAS  C:\Users\danza\AppData\Local\Temp\cc8AM8kX.s 			page 11


 291              	.L21:
 276:Generated_Source\PSoC5/REFRESH_ISR.c ****         }
 277:Generated_Source\PSoC5/REFRESH_ISR.c ****         else
 278:Generated_Source\PSoC5/REFRESH_ISR.c ****         {
 279:Generated_Source\PSoC5/REFRESH_ISR.c ****             // Display 6 obstacles on LCD
 280:Generated_Source\PSoC5/REFRESH_ISR.c ****             PWM_Stop();
 292              		.loc 1 280 0
 293 0170 FFF7FEFF 		bl	PWM_Stop
 294              	.LVL12:
 281:Generated_Source\PSoC5/REFRESH_ISR.c ****             LCD_ClearDisplay();
 295              		.loc 1 281 0
 296 0174 0120     		movs	r0, #1
 297 0176 FFF7FEFF 		bl	LCD_WriteControl
 298              	.LVL13:
 282:Generated_Source\PSoC5/REFRESH_ISR.c ****             LCD_Position(CharacterPos, 0);
 299              		.loc 1 282 0
 300 017a 2F4D     		ldr	r5, .L24+16
 301 017c E868     		ldr	r0, [r5, #12]
 302 017e 0021     		movs	r1, #0
 303 0180 C0B2     		uxtb	r0, r0
 304 0182 FFF7FEFF 		bl	LCD_Position
 305              	.LVL14:
 283:Generated_Source\PSoC5/REFRESH_ISR.c ****             LCD_PutChar(Player);
 306              		.loc 1 283 0
 307 0186 287C     		ldrb	r0, [r5, #16]	@ zero_extendqisi2
 308 0188 FFF7FEFF 		bl	LCD_PutChar
 309              	.LVL15:
 284:Generated_Source\PSoC5/REFRESH_ISR.c ****             LCD_Position(Obstacle1Row, Obstacle1Col);
 310              		.loc 1 284 0
 311 018c 294C     		ldr	r4, .L24+12
 312 018e 2178     		ldrb	r1, [r4]	@ zero_extendqisi2
 313 0190 2878     		ldrb	r0, [r5]	@ zero_extendqisi2
 314 0192 FFF7FEFF 		bl	LCD_Position
 315              	.LVL16:
 285:Generated_Source\PSoC5/REFRESH_ISR.c ****             LCD_PutChar(Obstacle);
 316              		.loc 1 285 0
 317 0196 94F82800 		ldrb	r0, [r4, #40]	@ zero_extendqisi2
 318 019a FFF7FEFF 		bl	LCD_PutChar
 319              	.LVL17:
 286:Generated_Source\PSoC5/REFRESH_ISR.c ****             LCD_Position(Obstacle2Row, Obstacle2Col);
 320              		.loc 1 286 0
 321 019e 2179     		ldrb	r1, [r4, #4]	@ zero_extendqisi2
 322 01a0 207A     		ldrb	r0, [r4, #8]	@ zero_extendqisi2
 323 01a2 FFF7FEFF 		bl	LCD_Position
 324              	.LVL18:
 287:Generated_Source\PSoC5/REFRESH_ISR.c ****             LCD_PutChar(Obstacle2);
 325              		.loc 1 287 0
 326 01a6 94F82900 		ldrb	r0, [r4, #41]	@ zero_extendqisi2
 327 01aa FFF7FEFF 		bl	LCD_PutChar
 328              	.LVL19:
 288:Generated_Source\PSoC5/REFRESH_ISR.c ****             LCD_Position(Obstacle3Row, Obstacle3Col);
 329              		.loc 1 288 0
 330 01ae 217B     		ldrb	r1, [r4, #12]	@ zero_extendqisi2
 331 01b0 2879     		ldrb	r0, [r5, #4]	@ zero_extendqisi2
 332 01b2 FFF7FEFF 		bl	LCD_Position
 333              	.LVL20:
 289:Generated_Source\PSoC5/REFRESH_ISR.c ****             LCD_PutChar(Obstacle);
ARM GAS  C:\Users\danza\AppData\Local\Temp\cc8AM8kX.s 			page 12


 334              		.loc 1 289 0
 335 01b6 94F82800 		ldrb	r0, [r4, #40]	@ zero_extendqisi2
 336 01ba FFF7FEFF 		bl	LCD_PutChar
 337              	.LVL21:
 290:Generated_Source\PSoC5/REFRESH_ISR.c ****             LCD_Position(Obstacle4Row, Obstacle4Col);
 338              		.loc 1 290 0
 339 01be 217C     		ldrb	r1, [r4, #16]	@ zero_extendqisi2
 340 01c0 207D     		ldrb	r0, [r4, #20]	@ zero_extendqisi2
 341 01c2 FFF7FEFF 		bl	LCD_Position
 342              	.LVL22:
 291:Generated_Source\PSoC5/REFRESH_ISR.c ****             LCD_PutChar(Obstacle2);
 343              		.loc 1 291 0
 344 01c6 94F82900 		ldrb	r0, [r4, #41]	@ zero_extendqisi2
 345 01ca FFF7FEFF 		bl	LCD_PutChar
 346              	.LVL23:
 292:Generated_Source\PSoC5/REFRESH_ISR.c ****             LCD_Position(Obstacle5Row, Obstacle5Col);
 347              		.loc 1 292 0
 348 01ce 217E     		ldrb	r1, [r4, #24]	@ zero_extendqisi2
 349 01d0 287A     		ldrb	r0, [r5, #8]	@ zero_extendqisi2
 350 01d2 FFF7FEFF 		bl	LCD_Position
 351              	.LVL24:
 293:Generated_Source\PSoC5/REFRESH_ISR.c ****             LCD_PutChar(Obstacle);
 352              		.loc 1 293 0
 353 01d6 94F82800 		ldrb	r0, [r4, #40]	@ zero_extendqisi2
 354 01da FFF7FEFF 		bl	LCD_PutChar
 355              	.LVL25:
 294:Generated_Source\PSoC5/REFRESH_ISR.c ****             LCD_Position(Obstacle6Row, Obstacle6Col);
 356              		.loc 1 294 0
 357 01de 217F     		ldrb	r1, [r4, #28]	@ zero_extendqisi2
 358 01e0 94F82000 		ldrb	r0, [r4, #32]	@ zero_extendqisi2
 359 01e4 FFF7FEFF 		bl	LCD_Position
 360              	.LVL26:
 295:Generated_Source\PSoC5/REFRESH_ISR.c ****             LCD_PutChar(Obstacle2);
 361              		.loc 1 295 0
 362 01e8 94F82900 		ldrb	r0, [r4, #41]	@ zero_extendqisi2
 363 01ec FFF7FEFF 		bl	LCD_PutChar
 364              	.LVL27:
 365 01f0 12E0     		b	.L22
 366              	.L14:
 296:Generated_Source\PSoC5/REFRESH_ISR.c ****         }
 297:Generated_Source\PSoC5/REFRESH_ISR.c ****     }
 298:Generated_Source\PSoC5/REFRESH_ISR.c ****     else
 299:Generated_Source\PSoC5/REFRESH_ISR.c ****     {
 300:Generated_Source\PSoC5/REFRESH_ISR.c ****         /* If number of lives are 0,
 301:Generated_Source\PSoC5/REFRESH_ISR.c ****            Display end game screen */
 302:Generated_Source\PSoC5/REFRESH_ISR.c ****         PWM_Stop();
 367              		.loc 1 302 0
 368 01f2 FFF7FEFF 		bl	PWM_Stop
 369              	.LVL28:
 303:Generated_Source\PSoC5/REFRESH_ISR.c ****         LCD_ClearDisplay();
 370              		.loc 1 303 0
 371 01f6 0120     		movs	r0, #1
 372 01f8 FFF7FEFF 		bl	LCD_WriteControl
 373              	.LVL29:
 304:Generated_Source\PSoC5/REFRESH_ISR.c ****         LCD_Position(0,3);
 374              		.loc 1 304 0
 375 01fc 0321     		movs	r1, #3
ARM GAS  C:\Users\danza\AppData\Local\Temp\cc8AM8kX.s 			page 13


 376 01fe 0020     		movs	r0, #0
 377 0200 FFF7FEFF 		bl	LCD_Position
 378              	.LVL30:
 305:Generated_Source\PSoC5/REFRESH_ISR.c ****         LCD_PrintString("GAMEOVER!!");
 379              		.loc 1 305 0
 380 0204 1048     		ldr	r0, .L24+32
 381 0206 FFF7FEFF 		bl	LCD_PrintString
 382              	.LVL31:
 306:Generated_Source\PSoC5/REFRESH_ISR.c ****         LCD_Position(1,0);
 383              		.loc 1 306 0
 384 020a 0021     		movs	r1, #0
 385 020c 0120     		movs	r0, #1
 386 020e FFF7FEFF 		bl	LCD_Position
 387              	.LVL32:
 307:Generated_Source\PSoC5/REFRESH_ISR.c ****         LCD_PrintString("Reset to restart");
 388              		.loc 1 307 0
 389 0212 0E48     		ldr	r0, .L24+36
 390 0214 FFF7FEFF 		bl	LCD_PrintString
 391              	.LVL33:
 392              	.L22:
 308:Generated_Source\PSoC5/REFRESH_ISR.c ****     }
 309:Generated_Source\PSoC5/REFRESH_ISR.c ****     
 310:Generated_Source\PSoC5/REFRESH_ISR.c ****     period = Refresh_Timer_ReadPeriod();
 393              		.loc 1 310 0
 394 0218 FFF7FEFF 		bl	Refresh_Timer_ReadPeriod
 395              	.LVL34:
 396 021c 074B     		ldr	r3, .L24+20
 397 021e 1860     		str	r0, [r3]
 311:Generated_Source\PSoC5/REFRESH_ISR.c ****     Refresh_Timer_ReadStatusRegister();
 398              		.loc 1 311 0
 399 0220 FFF7FEFF 		bl	Refresh_Timer_ReadStatusRegister
 400              	.LVL35:
 401 0224 38BD     		pop	{r3, r4, r5, pc}
 402              	.L25:
 403 0226 00BF     		.align	3
 404              	.L24:
 405 0228 CDCCCCCC 		.word	-858993459
 406 022c CCCCEC3F 		.word	1072483532
 407 0230 00000000 		.word	random
 408 0234 00000000 		.word	.LANCHOR0
 409 0238 00000000 		.word	.LANCHOR1
 410 023c 00000000 		.word	period
 411 0240 00000000 		.word	.LC0
 412 0244 08000000 		.word	.LC1
 413 0248 10000000 		.word	.LC2
 414 024c 1C000000 		.word	.LC3
 415              		.cfi_endproc
 416              	.LFE3:
 417              		.size	REFRESH_ISR_Interrupt, .-REFRESH_ISR_Interrupt
 418              		.section	.text.REFRESH_ISR_SetVector,"ax",%progbits
 419              		.align	2
 420              		.global	REFRESH_ISR_SetVector
 421              		.thumb
 422              		.thumb_func
 423              		.type	REFRESH_ISR_SetVector, %function
 424              	REFRESH_ISR_SetVector:
 425              	.LFB4:
ARM GAS  C:\Users\danza\AppData\Local\Temp\cc8AM8kX.s 			page 14


 312:Generated_Source\PSoC5/REFRESH_ISR.c ****     
 313:Generated_Source\PSoC5/REFRESH_ISR.c ****     /* `#END` */
 314:Generated_Source\PSoC5/REFRESH_ISR.c **** }
 315:Generated_Source\PSoC5/REFRESH_ISR.c **** 
 316:Generated_Source\PSoC5/REFRESH_ISR.c **** 
 317:Generated_Source\PSoC5/REFRESH_ISR.c **** /*******************************************************************************
 318:Generated_Source\PSoC5/REFRESH_ISR.c **** * Function Name: REFRESH_ISR_SetVector
 319:Generated_Source\PSoC5/REFRESH_ISR.c **** ********************************************************************************
 320:Generated_Source\PSoC5/REFRESH_ISR.c **** *
 321:Generated_Source\PSoC5/REFRESH_ISR.c **** * Summary:
 322:Generated_Source\PSoC5/REFRESH_ISR.c **** *   Change the ISR vector for the Interrupt. Note calling REFRESH_ISR_Start
 323:Generated_Source\PSoC5/REFRESH_ISR.c **** *   will override any effect this method would have had. To set the vector 
 324:Generated_Source\PSoC5/REFRESH_ISR.c **** *   before the component has been started use REFRESH_ISR_StartEx instead.
 325:Generated_Source\PSoC5/REFRESH_ISR.c **** * 
 326:Generated_Source\PSoC5/REFRESH_ISR.c **** *   When defining ISR functions, the CY_ISR and CY_ISR_PROTO macros should be 
 327:Generated_Source\PSoC5/REFRESH_ISR.c **** *   used to provide consistent definition across compilers:
 328:Generated_Source\PSoC5/REFRESH_ISR.c **** *
 329:Generated_Source\PSoC5/REFRESH_ISR.c **** *   Function definition example:
 330:Generated_Source\PSoC5/REFRESH_ISR.c **** *   CY_ISR(MyISR)
 331:Generated_Source\PSoC5/REFRESH_ISR.c **** *   {
 332:Generated_Source\PSoC5/REFRESH_ISR.c **** *   }
 333:Generated_Source\PSoC5/REFRESH_ISR.c **** *
 334:Generated_Source\PSoC5/REFRESH_ISR.c **** *   Function prototype example:
 335:Generated_Source\PSoC5/REFRESH_ISR.c **** *     CY_ISR_PROTO(MyISR);
 336:Generated_Source\PSoC5/REFRESH_ISR.c **** *
 337:Generated_Source\PSoC5/REFRESH_ISR.c **** * Parameters:
 338:Generated_Source\PSoC5/REFRESH_ISR.c **** *   address: Address of the ISR to set in the interrupt vector table.
 339:Generated_Source\PSoC5/REFRESH_ISR.c **** *
 340:Generated_Source\PSoC5/REFRESH_ISR.c **** * Return:
 341:Generated_Source\PSoC5/REFRESH_ISR.c **** *   None
 342:Generated_Source\PSoC5/REFRESH_ISR.c **** *
 343:Generated_Source\PSoC5/REFRESH_ISR.c **** *******************************************************************************/
 344:Generated_Source\PSoC5/REFRESH_ISR.c **** void REFRESH_ISR_SetVector(cyisraddress address)
 345:Generated_Source\PSoC5/REFRESH_ISR.c **** {
 426              		.loc 1 345 0
 427              		.cfi_startproc
 428              		@ args = 0, pretend = 0, frame = 0
 429              		@ frame_needed = 0, uses_anonymous_args = 0
 430              		@ link register save eliminated.
 431              	.LVL36:
 346:Generated_Source\PSoC5/REFRESH_ISR.c ****     cyisraddress * ramVectorTable;
 347:Generated_Source\PSoC5/REFRESH_ISR.c **** 
 348:Generated_Source\PSoC5/REFRESH_ISR.c ****     ramVectorTable = (cyisraddress *) *CYINT_VECT_TABLE;
 432              		.loc 1 348 0
 433 0000 024B     		ldr	r3, .L27
 434 0002 1B68     		ldr	r3, [r3]
 435              	.LVL37:
 349:Generated_Source\PSoC5/REFRESH_ISR.c **** 
 350:Generated_Source\PSoC5/REFRESH_ISR.c ****     ramVectorTable[CYINT_IRQ_BASE + (uint32)REFRESH_ISR__INTC_NUMBER] = address;
 436              		.loc 1 350 0
 437 0004 C3F88800 		str	r0, [r3, #136]
 438 0008 7047     		bx	lr
 439              	.L28:
 440 000a 00BF     		.align	2
 441              	.L27:
 442 000c 08ED00E0 		.word	-536810232
 443              		.cfi_endproc
ARM GAS  C:\Users\danza\AppData\Local\Temp\cc8AM8kX.s 			page 15


 444              	.LFE4:
 445              		.size	REFRESH_ISR_SetVector, .-REFRESH_ISR_SetVector
 446              		.section	.text.REFRESH_ISR_GetVector,"ax",%progbits
 447              		.align	2
 448              		.global	REFRESH_ISR_GetVector
 449              		.thumb
 450              		.thumb_func
 451              		.type	REFRESH_ISR_GetVector, %function
 452              	REFRESH_ISR_GetVector:
 453              	.LFB5:
 351:Generated_Source\PSoC5/REFRESH_ISR.c **** }
 352:Generated_Source\PSoC5/REFRESH_ISR.c **** 
 353:Generated_Source\PSoC5/REFRESH_ISR.c **** 
 354:Generated_Source\PSoC5/REFRESH_ISR.c **** /*******************************************************************************
 355:Generated_Source\PSoC5/REFRESH_ISR.c **** * Function Name: REFRESH_ISR_GetVector
 356:Generated_Source\PSoC5/REFRESH_ISR.c **** ********************************************************************************
 357:Generated_Source\PSoC5/REFRESH_ISR.c **** *
 358:Generated_Source\PSoC5/REFRESH_ISR.c **** * Summary:
 359:Generated_Source\PSoC5/REFRESH_ISR.c **** *   Gets the "address" of the current ISR vector for the Interrupt.
 360:Generated_Source\PSoC5/REFRESH_ISR.c **** *
 361:Generated_Source\PSoC5/REFRESH_ISR.c **** * Parameters:
 362:Generated_Source\PSoC5/REFRESH_ISR.c **** *   None
 363:Generated_Source\PSoC5/REFRESH_ISR.c **** *
 364:Generated_Source\PSoC5/REFRESH_ISR.c **** * Return:
 365:Generated_Source\PSoC5/REFRESH_ISR.c **** *   Address of the ISR in the interrupt vector table.
 366:Generated_Source\PSoC5/REFRESH_ISR.c **** *
 367:Generated_Source\PSoC5/REFRESH_ISR.c **** *******************************************************************************/
 368:Generated_Source\PSoC5/REFRESH_ISR.c **** cyisraddress REFRESH_ISR_GetVector(void)
 369:Generated_Source\PSoC5/REFRESH_ISR.c **** {
 454              		.loc 1 369 0
 455              		.cfi_startproc
 456              		@ args = 0, pretend = 0, frame = 0
 457              		@ frame_needed = 0, uses_anonymous_args = 0
 458              		@ link register save eliminated.
 370:Generated_Source\PSoC5/REFRESH_ISR.c ****     cyisraddress * ramVectorTable;
 371:Generated_Source\PSoC5/REFRESH_ISR.c **** 
 372:Generated_Source\PSoC5/REFRESH_ISR.c ****     ramVectorTable = (cyisraddress *) *CYINT_VECT_TABLE;
 459              		.loc 1 372 0
 460 0000 024B     		ldr	r3, .L30
 461 0002 1B68     		ldr	r3, [r3]
 462              	.LVL38:
 373:Generated_Source\PSoC5/REFRESH_ISR.c **** 
 374:Generated_Source\PSoC5/REFRESH_ISR.c ****     return ramVectorTable[CYINT_IRQ_BASE + (uint32)REFRESH_ISR__INTC_NUMBER];
 375:Generated_Source\PSoC5/REFRESH_ISR.c **** }
 463              		.loc 1 375 0
 464 0004 D3F88800 		ldr	r0, [r3, #136]
 465 0008 7047     		bx	lr
 466              	.L31:
 467 000a 00BF     		.align	2
 468              	.L30:
 469 000c 08ED00E0 		.word	-536810232
 470              		.cfi_endproc
 471              	.LFE5:
 472              		.size	REFRESH_ISR_GetVector, .-REFRESH_ISR_GetVector
 473              		.section	.text.REFRESH_ISR_SetPriority,"ax",%progbits
 474              		.align	2
 475              		.global	REFRESH_ISR_SetPriority
ARM GAS  C:\Users\danza\AppData\Local\Temp\cc8AM8kX.s 			page 16


 476              		.thumb
 477              		.thumb_func
 478              		.type	REFRESH_ISR_SetPriority, %function
 479              	REFRESH_ISR_SetPriority:
 480              	.LFB6:
 376:Generated_Source\PSoC5/REFRESH_ISR.c **** 
 377:Generated_Source\PSoC5/REFRESH_ISR.c **** 
 378:Generated_Source\PSoC5/REFRESH_ISR.c **** /*******************************************************************************
 379:Generated_Source\PSoC5/REFRESH_ISR.c **** * Function Name: REFRESH_ISR_SetPriority
 380:Generated_Source\PSoC5/REFRESH_ISR.c **** ********************************************************************************
 381:Generated_Source\PSoC5/REFRESH_ISR.c **** *
 382:Generated_Source\PSoC5/REFRESH_ISR.c **** * Summary:
 383:Generated_Source\PSoC5/REFRESH_ISR.c **** *   Sets the Priority of the Interrupt. 
 384:Generated_Source\PSoC5/REFRESH_ISR.c **** *
 385:Generated_Source\PSoC5/REFRESH_ISR.c **** *   Note calling REFRESH_ISR_Start or REFRESH_ISR_StartEx will 
 386:Generated_Source\PSoC5/REFRESH_ISR.c **** *   override any effect this API would have had. This API should only be called
 387:Generated_Source\PSoC5/REFRESH_ISR.c **** *   after REFRESH_ISR_Start or REFRESH_ISR_StartEx has been called. 
 388:Generated_Source\PSoC5/REFRESH_ISR.c **** *   To set the initial priority for the component, use the Design-Wide Resources
 389:Generated_Source\PSoC5/REFRESH_ISR.c **** *   Interrupt Editor.
 390:Generated_Source\PSoC5/REFRESH_ISR.c **** *
 391:Generated_Source\PSoC5/REFRESH_ISR.c **** *   Note This API has no effect on Non-maskable interrupt NMI).
 392:Generated_Source\PSoC5/REFRESH_ISR.c **** *
 393:Generated_Source\PSoC5/REFRESH_ISR.c **** * Parameters:
 394:Generated_Source\PSoC5/REFRESH_ISR.c **** *   priority: Priority of the interrupt, 0 being the highest priority
 395:Generated_Source\PSoC5/REFRESH_ISR.c **** *             PSoC 3 and PSoC 5LP: Priority is from 0 to 7.
 396:Generated_Source\PSoC5/REFRESH_ISR.c **** *             PSoC 4: Priority is from 0 to 3.
 397:Generated_Source\PSoC5/REFRESH_ISR.c **** *
 398:Generated_Source\PSoC5/REFRESH_ISR.c **** * Return:
 399:Generated_Source\PSoC5/REFRESH_ISR.c **** *   None
 400:Generated_Source\PSoC5/REFRESH_ISR.c **** *
 401:Generated_Source\PSoC5/REFRESH_ISR.c **** *******************************************************************************/
 402:Generated_Source\PSoC5/REFRESH_ISR.c **** void REFRESH_ISR_SetPriority(uint8 priority)
 403:Generated_Source\PSoC5/REFRESH_ISR.c **** {
 481              		.loc 1 403 0
 482              		.cfi_startproc
 483              		@ args = 0, pretend = 0, frame = 0
 484              		@ frame_needed = 0, uses_anonymous_args = 0
 485              		@ link register save eliminated.
 486              	.LVL39:
 404:Generated_Source\PSoC5/REFRESH_ISR.c ****     *REFRESH_ISR_INTC_PRIOR = priority << 5;
 487              		.loc 1 404 0
 488 0000 4001     		lsls	r0, r0, #5
 489              	.LVL40:
 490 0002 C0B2     		uxtb	r0, r0
 491 0004 014B     		ldr	r3, .L33
 492 0006 1870     		strb	r0, [r3]
 493 0008 7047     		bx	lr
 494              	.L34:
 495 000a 00BF     		.align	2
 496              	.L33:
 497 000c 12E400E0 		.word	-536812526
 498              		.cfi_endproc
 499              	.LFE6:
 500              		.size	REFRESH_ISR_SetPriority, .-REFRESH_ISR_SetPriority
 501              		.section	.text.REFRESH_ISR_GetPriority,"ax",%progbits
 502              		.align	2
 503              		.global	REFRESH_ISR_GetPriority
ARM GAS  C:\Users\danza\AppData\Local\Temp\cc8AM8kX.s 			page 17


 504              		.thumb
 505              		.thumb_func
 506              		.type	REFRESH_ISR_GetPriority, %function
 507              	REFRESH_ISR_GetPriority:
 508              	.LFB7:
 405:Generated_Source\PSoC5/REFRESH_ISR.c **** }
 406:Generated_Source\PSoC5/REFRESH_ISR.c **** 
 407:Generated_Source\PSoC5/REFRESH_ISR.c **** 
 408:Generated_Source\PSoC5/REFRESH_ISR.c **** /*******************************************************************************
 409:Generated_Source\PSoC5/REFRESH_ISR.c **** * Function Name: REFRESH_ISR_GetPriority
 410:Generated_Source\PSoC5/REFRESH_ISR.c **** ********************************************************************************
 411:Generated_Source\PSoC5/REFRESH_ISR.c **** *
 412:Generated_Source\PSoC5/REFRESH_ISR.c **** * Summary:
 413:Generated_Source\PSoC5/REFRESH_ISR.c **** *   Gets the Priority of the Interrupt.
 414:Generated_Source\PSoC5/REFRESH_ISR.c **** *
 415:Generated_Source\PSoC5/REFRESH_ISR.c **** * Parameters:
 416:Generated_Source\PSoC5/REFRESH_ISR.c **** *   None
 417:Generated_Source\PSoC5/REFRESH_ISR.c **** *
 418:Generated_Source\PSoC5/REFRESH_ISR.c **** * Return:
 419:Generated_Source\PSoC5/REFRESH_ISR.c **** *   Priority of the interrupt, 0 being the highest priority
 420:Generated_Source\PSoC5/REFRESH_ISR.c **** *    PSoC 3 and PSoC 5LP: Priority is from 0 to 7.
 421:Generated_Source\PSoC5/REFRESH_ISR.c **** *    PSoC 4: Priority is from 0 to 3.
 422:Generated_Source\PSoC5/REFRESH_ISR.c **** *
 423:Generated_Source\PSoC5/REFRESH_ISR.c **** *******************************************************************************/
 424:Generated_Source\PSoC5/REFRESH_ISR.c **** uint8 REFRESH_ISR_GetPriority(void)
 425:Generated_Source\PSoC5/REFRESH_ISR.c **** {
 509              		.loc 1 425 0
 510              		.cfi_startproc
 511              		@ args = 0, pretend = 0, frame = 0
 512              		@ frame_needed = 0, uses_anonymous_args = 0
 513              		@ link register save eliminated.
 426:Generated_Source\PSoC5/REFRESH_ISR.c ****     uint8 priority;
 427:Generated_Source\PSoC5/REFRESH_ISR.c **** 
 428:Generated_Source\PSoC5/REFRESH_ISR.c **** 
 429:Generated_Source\PSoC5/REFRESH_ISR.c ****     priority = *REFRESH_ISR_INTC_PRIOR >> 5;
 514              		.loc 1 429 0
 515 0000 014B     		ldr	r3, .L36
 516 0002 1878     		ldrb	r0, [r3]	@ zero_extendqisi2
 517              	.LVL41:
 430:Generated_Source\PSoC5/REFRESH_ISR.c **** 
 431:Generated_Source\PSoC5/REFRESH_ISR.c ****     return priority;
 432:Generated_Source\PSoC5/REFRESH_ISR.c **** }
 518              		.loc 1 432 0
 519 0004 4009     		lsrs	r0, r0, #5
 520              	.LVL42:
 521 0006 7047     		bx	lr
 522              	.L37:
 523              		.align	2
 524              	.L36:
 525 0008 12E400E0 		.word	-536812526
 526              		.cfi_endproc
 527              	.LFE7:
 528              		.size	REFRESH_ISR_GetPriority, .-REFRESH_ISR_GetPriority
 529              		.section	.text.REFRESH_ISR_Enable,"ax",%progbits
 530              		.align	2
 531              		.global	REFRESH_ISR_Enable
 532              		.thumb
ARM GAS  C:\Users\danza\AppData\Local\Temp\cc8AM8kX.s 			page 18


 533              		.thumb_func
 534              		.type	REFRESH_ISR_Enable, %function
 535              	REFRESH_ISR_Enable:
 536              	.LFB8:
 433:Generated_Source\PSoC5/REFRESH_ISR.c **** 
 434:Generated_Source\PSoC5/REFRESH_ISR.c **** 
 435:Generated_Source\PSoC5/REFRESH_ISR.c **** /*******************************************************************************
 436:Generated_Source\PSoC5/REFRESH_ISR.c **** * Function Name: REFRESH_ISR_Enable
 437:Generated_Source\PSoC5/REFRESH_ISR.c **** ********************************************************************************
 438:Generated_Source\PSoC5/REFRESH_ISR.c **** *
 439:Generated_Source\PSoC5/REFRESH_ISR.c **** * Summary:
 440:Generated_Source\PSoC5/REFRESH_ISR.c **** *   Enables the interrupt to the interrupt controller. Do not call this function
 441:Generated_Source\PSoC5/REFRESH_ISR.c **** *   unless ISR_Start() has been called or the functionality of the ISR_Start() 
 442:Generated_Source\PSoC5/REFRESH_ISR.c **** *   function, which sets the vector and the priority, has been called.
 443:Generated_Source\PSoC5/REFRESH_ISR.c **** *
 444:Generated_Source\PSoC5/REFRESH_ISR.c **** * Parameters:
 445:Generated_Source\PSoC5/REFRESH_ISR.c **** *   None
 446:Generated_Source\PSoC5/REFRESH_ISR.c **** *
 447:Generated_Source\PSoC5/REFRESH_ISR.c **** * Return:
 448:Generated_Source\PSoC5/REFRESH_ISR.c **** *   None
 449:Generated_Source\PSoC5/REFRESH_ISR.c **** *
 450:Generated_Source\PSoC5/REFRESH_ISR.c **** *******************************************************************************/
 451:Generated_Source\PSoC5/REFRESH_ISR.c **** void REFRESH_ISR_Enable(void)
 452:Generated_Source\PSoC5/REFRESH_ISR.c **** {
 537              		.loc 1 452 0
 538              		.cfi_startproc
 539              		@ args = 0, pretend = 0, frame = 0
 540              		@ frame_needed = 0, uses_anonymous_args = 0
 541              		@ link register save eliminated.
 453:Generated_Source\PSoC5/REFRESH_ISR.c ****     /* Enable the general interrupt. */
 454:Generated_Source\PSoC5/REFRESH_ISR.c ****     *REFRESH_ISR_INTC_SET_EN = REFRESH_ISR__INTC_MASK;
 542              		.loc 1 454 0
 543 0000 4FF48022 		mov	r2, #262144
 544 0004 014B     		ldr	r3, .L39
 545 0006 1A60     		str	r2, [r3]
 546 0008 7047     		bx	lr
 547              	.L40:
 548 000a 00BF     		.align	2
 549              	.L39:
 550 000c 00E100E0 		.word	-536813312
 551              		.cfi_endproc
 552              	.LFE8:
 553              		.size	REFRESH_ISR_Enable, .-REFRESH_ISR_Enable
 554              		.section	.text.REFRESH_ISR_GetState,"ax",%progbits
 555              		.align	2
 556              		.global	REFRESH_ISR_GetState
 557              		.thumb
 558              		.thumb_func
 559              		.type	REFRESH_ISR_GetState, %function
 560              	REFRESH_ISR_GetState:
 561              	.LFB9:
 455:Generated_Source\PSoC5/REFRESH_ISR.c **** }
 456:Generated_Source\PSoC5/REFRESH_ISR.c **** 
 457:Generated_Source\PSoC5/REFRESH_ISR.c **** 
 458:Generated_Source\PSoC5/REFRESH_ISR.c **** /*******************************************************************************
 459:Generated_Source\PSoC5/REFRESH_ISR.c **** * Function Name: REFRESH_ISR_GetState
 460:Generated_Source\PSoC5/REFRESH_ISR.c **** ********************************************************************************
ARM GAS  C:\Users\danza\AppData\Local\Temp\cc8AM8kX.s 			page 19


 461:Generated_Source\PSoC5/REFRESH_ISR.c **** *
 462:Generated_Source\PSoC5/REFRESH_ISR.c **** * Summary:
 463:Generated_Source\PSoC5/REFRESH_ISR.c **** *   Gets the state (enabled, disabled) of the Interrupt.
 464:Generated_Source\PSoC5/REFRESH_ISR.c **** *
 465:Generated_Source\PSoC5/REFRESH_ISR.c **** * Parameters:
 466:Generated_Source\PSoC5/REFRESH_ISR.c **** *   None
 467:Generated_Source\PSoC5/REFRESH_ISR.c **** *
 468:Generated_Source\PSoC5/REFRESH_ISR.c **** * Return:
 469:Generated_Source\PSoC5/REFRESH_ISR.c **** *   1 if enabled, 0 if disabled.
 470:Generated_Source\PSoC5/REFRESH_ISR.c **** *
 471:Generated_Source\PSoC5/REFRESH_ISR.c **** *******************************************************************************/
 472:Generated_Source\PSoC5/REFRESH_ISR.c **** uint8 REFRESH_ISR_GetState(void)
 473:Generated_Source\PSoC5/REFRESH_ISR.c **** {
 562              		.loc 1 473 0
 563              		.cfi_startproc
 564              		@ args = 0, pretend = 0, frame = 0
 565              		@ frame_needed = 0, uses_anonymous_args = 0
 566              		@ link register save eliminated.
 474:Generated_Source\PSoC5/REFRESH_ISR.c ****     /* Get the state of the general interrupt. */
 475:Generated_Source\PSoC5/REFRESH_ISR.c ****     return ((*REFRESH_ISR_INTC_SET_EN & (uint32)REFRESH_ISR__INTC_MASK) != 0u) ? 1u:0u;
 567              		.loc 1 475 0
 568 0000 044B     		ldr	r3, .L44
 569 0002 1B68     		ldr	r3, [r3]
 570 0004 13F4802F 		tst	r3, #262144
 571 0008 01D0     		beq	.L43
 572 000a 0120     		movs	r0, #1
 573 000c 7047     		bx	lr
 574              	.L43:
 575 000e 0020     		movs	r0, #0
 476:Generated_Source\PSoC5/REFRESH_ISR.c **** }
 576              		.loc 1 476 0
 577 0010 7047     		bx	lr
 578              	.L45:
 579 0012 00BF     		.align	2
 580              	.L44:
 581 0014 00E100E0 		.word	-536813312
 582              		.cfi_endproc
 583              	.LFE9:
 584              		.size	REFRESH_ISR_GetState, .-REFRESH_ISR_GetState
 585              		.section	.text.REFRESH_ISR_Disable,"ax",%progbits
 586              		.align	2
 587              		.global	REFRESH_ISR_Disable
 588              		.thumb
 589              		.thumb_func
 590              		.type	REFRESH_ISR_Disable, %function
 591              	REFRESH_ISR_Disable:
 592              	.LFB10:
 477:Generated_Source\PSoC5/REFRESH_ISR.c **** 
 478:Generated_Source\PSoC5/REFRESH_ISR.c **** 
 479:Generated_Source\PSoC5/REFRESH_ISR.c **** /*******************************************************************************
 480:Generated_Source\PSoC5/REFRESH_ISR.c **** * Function Name: REFRESH_ISR_Disable
 481:Generated_Source\PSoC5/REFRESH_ISR.c **** ********************************************************************************
 482:Generated_Source\PSoC5/REFRESH_ISR.c **** *
 483:Generated_Source\PSoC5/REFRESH_ISR.c **** * Summary:
 484:Generated_Source\PSoC5/REFRESH_ISR.c **** *   Disables the Interrupt in the interrupt controller.
 485:Generated_Source\PSoC5/REFRESH_ISR.c **** *
 486:Generated_Source\PSoC5/REFRESH_ISR.c **** * Parameters:
ARM GAS  C:\Users\danza\AppData\Local\Temp\cc8AM8kX.s 			page 20


 487:Generated_Source\PSoC5/REFRESH_ISR.c **** *   None
 488:Generated_Source\PSoC5/REFRESH_ISR.c **** *
 489:Generated_Source\PSoC5/REFRESH_ISR.c **** * Return:
 490:Generated_Source\PSoC5/REFRESH_ISR.c **** *   None
 491:Generated_Source\PSoC5/REFRESH_ISR.c **** *
 492:Generated_Source\PSoC5/REFRESH_ISR.c **** *******************************************************************************/
 493:Generated_Source\PSoC5/REFRESH_ISR.c **** void REFRESH_ISR_Disable(void)
 494:Generated_Source\PSoC5/REFRESH_ISR.c **** {
 593              		.loc 1 494 0
 594              		.cfi_startproc
 595              		@ args = 0, pretend = 0, frame = 0
 596              		@ frame_needed = 0, uses_anonymous_args = 0
 597              		@ link register save eliminated.
 495:Generated_Source\PSoC5/REFRESH_ISR.c ****     /* Disable the general interrupt. */
 496:Generated_Source\PSoC5/REFRESH_ISR.c ****     *REFRESH_ISR_INTC_CLR_EN = REFRESH_ISR__INTC_MASK;
 598              		.loc 1 496 0
 599 0000 4FF48022 		mov	r2, #262144
 600 0004 014B     		ldr	r3, .L47
 601 0006 1A60     		str	r2, [r3]
 602 0008 7047     		bx	lr
 603              	.L48:
 604 000a 00BF     		.align	2
 605              	.L47:
 606 000c 80E100E0 		.word	-536813184
 607              		.cfi_endproc
 608              	.LFE10:
 609              		.size	REFRESH_ISR_Disable, .-REFRESH_ISR_Disable
 610              		.section	.text.REFRESH_ISR_Start,"ax",%progbits
 611              		.align	2
 612              		.global	REFRESH_ISR_Start
 613              		.thumb
 614              		.thumb_func
 615              		.type	REFRESH_ISR_Start, %function
 616              	REFRESH_ISR_Start:
 617              	.LFB0:
  90:Generated_Source\PSoC5/REFRESH_ISR.c ****     /* For all we know the interrupt is active. */
 618              		.loc 1 90 0
 619              		.cfi_startproc
 620              		@ args = 0, pretend = 0, frame = 0
 621              		@ frame_needed = 0, uses_anonymous_args = 0
 622 0000 08B5     		push	{r3, lr}
 623              		.cfi_def_cfa_offset 8
 624              		.cfi_offset 3, -8
 625              		.cfi_offset 14, -4
  92:Generated_Source\PSoC5/REFRESH_ISR.c **** 
 626              		.loc 1 92 0
 627 0002 FFF7FEFF 		bl	REFRESH_ISR_Disable
 628              	.LVL43:
  95:Generated_Source\PSoC5/REFRESH_ISR.c **** 
 629              		.loc 1 95 0
 630 0006 0448     		ldr	r0, .L51
 631 0008 FFF7FEFF 		bl	REFRESH_ISR_SetVector
 632              	.LVL44:
  98:Generated_Source\PSoC5/REFRESH_ISR.c **** 
 633              		.loc 1 98 0
 634 000c 0720     		movs	r0, #7
 635 000e FFF7FEFF 		bl	REFRESH_ISR_SetPriority
ARM GAS  C:\Users\danza\AppData\Local\Temp\cc8AM8kX.s 			page 21


 636              	.LVL45:
 101:Generated_Source\PSoC5/REFRESH_ISR.c **** }
 637              		.loc 1 101 0
 638 0012 FFF7FEFF 		bl	REFRESH_ISR_Enable
 639              	.LVL46:
 640 0016 08BD     		pop	{r3, pc}
 641              	.L52:
 642              		.align	2
 643              	.L51:
 644 0018 00000000 		.word	REFRESH_ISR_Interrupt
 645              		.cfi_endproc
 646              	.LFE0:
 647              		.size	REFRESH_ISR_Start, .-REFRESH_ISR_Start
 648              		.section	.text.REFRESH_ISR_StartEx,"ax",%progbits
 649              		.align	2
 650              		.global	REFRESH_ISR_StartEx
 651              		.thumb
 652              		.thumb_func
 653              		.type	REFRESH_ISR_StartEx, %function
 654              	REFRESH_ISR_StartEx:
 655              	.LFB1:
 133:Generated_Source\PSoC5/REFRESH_ISR.c ****     /* For all we know the interrupt is active. */
 656              		.loc 1 133 0
 657              		.cfi_startproc
 658              		@ args = 0, pretend = 0, frame = 0
 659              		@ frame_needed = 0, uses_anonymous_args = 0
 660              	.LVL47:
 661 0000 10B5     		push	{r4, lr}
 662              		.cfi_def_cfa_offset 8
 663              		.cfi_offset 4, -8
 664              		.cfi_offset 14, -4
 665 0002 0446     		mov	r4, r0
 135:Generated_Source\PSoC5/REFRESH_ISR.c **** 
 666              		.loc 1 135 0
 667 0004 FFF7FEFF 		bl	REFRESH_ISR_Disable
 668              	.LVL48:
 138:Generated_Source\PSoC5/REFRESH_ISR.c **** 
 669              		.loc 1 138 0
 670 0008 2046     		mov	r0, r4
 671 000a FFF7FEFF 		bl	REFRESH_ISR_SetVector
 672              	.LVL49:
 141:Generated_Source\PSoC5/REFRESH_ISR.c **** 
 673              		.loc 1 141 0
 674 000e 0720     		movs	r0, #7
 675 0010 FFF7FEFF 		bl	REFRESH_ISR_SetPriority
 676              	.LVL50:
 144:Generated_Source\PSoC5/REFRESH_ISR.c **** }
 677              		.loc 1 144 0
 678 0014 FFF7FEFF 		bl	REFRESH_ISR_Enable
 679              	.LVL51:
 680 0018 10BD     		pop	{r4, pc}
 681              		.cfi_endproc
 682              	.LFE1:
 683              		.size	REFRESH_ISR_StartEx, .-REFRESH_ISR_StartEx
 684 001a 00BF     		.section	.text.REFRESH_ISR_Stop,"ax",%progbits
 685              		.align	2
 686              		.global	REFRESH_ISR_Stop
ARM GAS  C:\Users\danza\AppData\Local\Temp\cc8AM8kX.s 			page 22


 687              		.thumb
 688              		.thumb_func
 689              		.type	REFRESH_ISR_Stop, %function
 690              	REFRESH_ISR_Stop:
 691              	.LFB2:
 163:Generated_Source\PSoC5/REFRESH_ISR.c ****     /* Disable this interrupt. */
 692              		.loc 1 163 0
 693              		.cfi_startproc
 694              		@ args = 0, pretend = 0, frame = 0
 695              		@ frame_needed = 0, uses_anonymous_args = 0
 696 0000 08B5     		push	{r3, lr}
 697              		.cfi_def_cfa_offset 8
 698              		.cfi_offset 3, -8
 699              		.cfi_offset 14, -4
 165:Generated_Source\PSoC5/REFRESH_ISR.c **** 
 700              		.loc 1 165 0
 701 0002 FFF7FEFF 		bl	REFRESH_ISR_Disable
 702              	.LVL52:
 168:Generated_Source\PSoC5/REFRESH_ISR.c **** }
 703              		.loc 1 168 0
 704 0006 0248     		ldr	r0, .L57
 705 0008 FFF7FEFF 		bl	REFRESH_ISR_SetVector
 706              	.LVL53:
 707 000c 08BD     		pop	{r3, pc}
 708              	.L58:
 709 000e 00BF     		.align	2
 710              	.L57:
 711 0010 00000000 		.word	IntDefaultHandler
 712              		.cfi_endproc
 713              	.LFE2:
 714              		.size	REFRESH_ISR_Stop, .-REFRESH_ISR_Stop
 715              		.section	.text.REFRESH_ISR_SetPending,"ax",%progbits
 716              		.align	2
 717              		.global	REFRESH_ISR_SetPending
 718              		.thumb
 719              		.thumb_func
 720              		.type	REFRESH_ISR_SetPending, %function
 721              	REFRESH_ISR_SetPending:
 722              	.LFB11:
 497:Generated_Source\PSoC5/REFRESH_ISR.c **** }
 498:Generated_Source\PSoC5/REFRESH_ISR.c **** 
 499:Generated_Source\PSoC5/REFRESH_ISR.c **** 
 500:Generated_Source\PSoC5/REFRESH_ISR.c **** /*******************************************************************************
 501:Generated_Source\PSoC5/REFRESH_ISR.c **** * Function Name: REFRESH_ISR_SetPending
 502:Generated_Source\PSoC5/REFRESH_ISR.c **** ********************************************************************************
 503:Generated_Source\PSoC5/REFRESH_ISR.c **** *
 504:Generated_Source\PSoC5/REFRESH_ISR.c **** * Summary:
 505:Generated_Source\PSoC5/REFRESH_ISR.c **** *   Causes the Interrupt to enter the pending state, a software method of
 506:Generated_Source\PSoC5/REFRESH_ISR.c **** *   generating the interrupt.
 507:Generated_Source\PSoC5/REFRESH_ISR.c **** *
 508:Generated_Source\PSoC5/REFRESH_ISR.c **** * Parameters:
 509:Generated_Source\PSoC5/REFRESH_ISR.c **** *   None
 510:Generated_Source\PSoC5/REFRESH_ISR.c **** *
 511:Generated_Source\PSoC5/REFRESH_ISR.c **** * Return:
 512:Generated_Source\PSoC5/REFRESH_ISR.c **** *   None
 513:Generated_Source\PSoC5/REFRESH_ISR.c **** *
 514:Generated_Source\PSoC5/REFRESH_ISR.c **** * Side Effects:
ARM GAS  C:\Users\danza\AppData\Local\Temp\cc8AM8kX.s 			page 23


 515:Generated_Source\PSoC5/REFRESH_ISR.c **** *   If interrupts are enabled and the interrupt is set up properly, the ISR is
 516:Generated_Source\PSoC5/REFRESH_ISR.c **** *   entered (depending on the priority of this interrupt and other pending 
 517:Generated_Source\PSoC5/REFRESH_ISR.c **** *   interrupts).
 518:Generated_Source\PSoC5/REFRESH_ISR.c **** *
 519:Generated_Source\PSoC5/REFRESH_ISR.c **** *******************************************************************************/
 520:Generated_Source\PSoC5/REFRESH_ISR.c **** void REFRESH_ISR_SetPending(void)
 521:Generated_Source\PSoC5/REFRESH_ISR.c **** {
 723              		.loc 1 521 0
 724              		.cfi_startproc
 725              		@ args = 0, pretend = 0, frame = 0
 726              		@ frame_needed = 0, uses_anonymous_args = 0
 727              		@ link register save eliminated.
 522:Generated_Source\PSoC5/REFRESH_ISR.c ****     *REFRESH_ISR_INTC_SET_PD = REFRESH_ISR__INTC_MASK;
 728              		.loc 1 522 0
 729 0000 4FF48022 		mov	r2, #262144
 730 0004 014B     		ldr	r3, .L60
 731 0006 1A60     		str	r2, [r3]
 732 0008 7047     		bx	lr
 733              	.L61:
 734 000a 00BF     		.align	2
 735              	.L60:
 736 000c 00E200E0 		.word	-536813056
 737              		.cfi_endproc
 738              	.LFE11:
 739              		.size	REFRESH_ISR_SetPending, .-REFRESH_ISR_SetPending
 740              		.section	.text.REFRESH_ISR_ClearPending,"ax",%progbits
 741              		.align	2
 742              		.global	REFRESH_ISR_ClearPending
 743              		.thumb
 744              		.thumb_func
 745              		.type	REFRESH_ISR_ClearPending, %function
 746              	REFRESH_ISR_ClearPending:
 747              	.LFB12:
 523:Generated_Source\PSoC5/REFRESH_ISR.c **** }
 524:Generated_Source\PSoC5/REFRESH_ISR.c **** 
 525:Generated_Source\PSoC5/REFRESH_ISR.c **** 
 526:Generated_Source\PSoC5/REFRESH_ISR.c **** /*******************************************************************************
 527:Generated_Source\PSoC5/REFRESH_ISR.c **** * Function Name: REFRESH_ISR_ClearPending
 528:Generated_Source\PSoC5/REFRESH_ISR.c **** ********************************************************************************
 529:Generated_Source\PSoC5/REFRESH_ISR.c **** *
 530:Generated_Source\PSoC5/REFRESH_ISR.c **** * Summary:
 531:Generated_Source\PSoC5/REFRESH_ISR.c **** *   Clears a pending interrupt in the interrupt controller.
 532:Generated_Source\PSoC5/REFRESH_ISR.c **** *
 533:Generated_Source\PSoC5/REFRESH_ISR.c **** *   Note Some interrupt sources are clear-on-read and require the block 
 534:Generated_Source\PSoC5/REFRESH_ISR.c **** *   interrupt/status register to be read/cleared with the appropriate block API 
 535:Generated_Source\PSoC5/REFRESH_ISR.c **** *   (GPIO, UART, and so on). Otherwise the ISR will continue to remain in 
 536:Generated_Source\PSoC5/REFRESH_ISR.c **** *   pending state even though the interrupt itself is cleared using this API.
 537:Generated_Source\PSoC5/REFRESH_ISR.c **** *
 538:Generated_Source\PSoC5/REFRESH_ISR.c **** * Parameters:
 539:Generated_Source\PSoC5/REFRESH_ISR.c **** *   None
 540:Generated_Source\PSoC5/REFRESH_ISR.c **** *
 541:Generated_Source\PSoC5/REFRESH_ISR.c **** * Return:
 542:Generated_Source\PSoC5/REFRESH_ISR.c **** *   None
 543:Generated_Source\PSoC5/REFRESH_ISR.c **** *
 544:Generated_Source\PSoC5/REFRESH_ISR.c **** *******************************************************************************/
 545:Generated_Source\PSoC5/REFRESH_ISR.c **** void REFRESH_ISR_ClearPending(void)
 546:Generated_Source\PSoC5/REFRESH_ISR.c **** {
ARM GAS  C:\Users\danza\AppData\Local\Temp\cc8AM8kX.s 			page 24


 748              		.loc 1 546 0
 749              		.cfi_startproc
 750              		@ args = 0, pretend = 0, frame = 0
 751              		@ frame_needed = 0, uses_anonymous_args = 0
 752              		@ link register save eliminated.
 547:Generated_Source\PSoC5/REFRESH_ISR.c ****     *REFRESH_ISR_INTC_CLR_PD = REFRESH_ISR__INTC_MASK;
 753              		.loc 1 547 0
 754 0000 4FF48022 		mov	r2, #262144
 755 0004 014B     		ldr	r3, .L63
 756 0006 1A60     		str	r2, [r3]
 757 0008 7047     		bx	lr
 758              	.L64:
 759 000a 00BF     		.align	2
 760              	.L63:
 761 000c 80E200E0 		.word	-536812928
 762              		.cfi_endproc
 763              	.LFE12:
 764              		.size	REFRESH_ISR_ClearPending, .-REFRESH_ISR_ClearPending
 765              		.global	Obstacle6Row
 766              		.global	Obstacle6Col
 767              		.global	Obstacle5Row
 768              		.global	Obstacle5Col
 769              		.global	Obstacle4Row
 770              		.global	Obstacle4Col
 771              		.global	Obstacle3Row
 772              		.global	Obstacle3Col
 773              		.global	Obstacle2Row
 774              		.global	Obstacle2Col
 775              		.global	Obstacle1Row
 776              		.global	Obstacle1Col
 777              		.global	CharacterPos
 778              		.global	Obstacle2
 779              		.global	Obstacle
 780              		.global	Player
 781              		.comm	period,4,4
 782              		.global	lives
 783              		.comm	random,4,4
 784              		.data
 785              		.align	2
 786              		.set	.LANCHOR0,. + 0
 787              		.type	Obstacle1Col, %object
 788              		.size	Obstacle1Col, 4
 789              	Obstacle1Col:
 790 0000 07000000 		.word	7
 791              		.type	Obstacle2Col, %object
 792              		.size	Obstacle2Col, 4
 793              	Obstacle2Col:
 794 0004 0A000000 		.word	10
 795              		.type	Obstacle2Row, %object
 796              		.size	Obstacle2Row, 4
 797              	Obstacle2Row:
 798 0008 01000000 		.word	1
 799              		.type	Obstacle3Col, %object
 800              		.size	Obstacle3Col, 4
 801              	Obstacle3Col:
 802 000c 0D000000 		.word	13
 803              		.type	Obstacle4Col, %object
ARM GAS  C:\Users\danza\AppData\Local\Temp\cc8AM8kX.s 			page 25


 804              		.size	Obstacle4Col, 4
 805              	Obstacle4Col:
 806 0010 10000000 		.word	16
 807              		.type	Obstacle4Row, %object
 808              		.size	Obstacle4Row, 4
 809              	Obstacle4Row:
 810 0014 01000000 		.word	1
 811              		.type	Obstacle5Col, %object
 812              		.size	Obstacle5Col, 4
 813              	Obstacle5Col:
 814 0018 13000000 		.word	19
 815              		.type	Obstacle6Col, %object
 816              		.size	Obstacle6Col, 4
 817              	Obstacle6Col:
 818 001c 15000000 		.word	21
 819              		.type	Obstacle6Row, %object
 820              		.size	Obstacle6Row, 4
 821              	Obstacle6Row:
 822 0020 01000000 		.word	1
 823              		.type	lives, %object
 824              		.size	lives, 4
 825              	lives:
 826 0024 03000000 		.word	3
 827              		.type	Obstacle, %object
 828              		.size	Obstacle, 1
 829              	Obstacle:
 830 0028 01       		.byte	1
 831              		.type	Obstacle2, %object
 832              		.size	Obstacle2, 1
 833              	Obstacle2:
 834 0029 02       		.byte	2
 835              		.section	.rodata.str1.4,"aMS",%progbits,1
 836              		.align	2
 837              	.LC0:
 838 0000 4F4F4621 		.ascii	"OOF!\000"
 838      00
 839 0005 000000   		.space	3
 840              	.LC1:
 841 0008 4C697665 		.ascii	"Lives: \000"
 841      733A2000 
 842              	.LC2:
 843 0010 47414D45 		.ascii	"GAMEOVER!!\000"
 843      4F564552 
 843      212100
 844 001b 00       		.space	1
 845              	.LC3:
 846 001c 52657365 		.ascii	"Reset to restart\000"
 846      7420746F 
 846      20726573 
 846      74617274 
 846      00
 847              		.bss
 848              		.align	2
 849              		.set	.LANCHOR1,. + 0
 850              		.type	Obstacle1Row, %object
 851              		.size	Obstacle1Row, 4
 852              	Obstacle1Row:
ARM GAS  C:\Users\danza\AppData\Local\Temp\cc8AM8kX.s 			page 26


 853 0000 00000000 		.space	4
 854              		.type	Obstacle3Row, %object
 855              		.size	Obstacle3Row, 4
 856              	Obstacle3Row:
 857 0004 00000000 		.space	4
 858              		.type	Obstacle5Row, %object
 859              		.size	Obstacle5Row, 4
 860              	Obstacle5Row:
 861 0008 00000000 		.space	4
 862              		.type	CharacterPos, %object
 863              		.size	CharacterPos, 4
 864              	CharacterPos:
 865 000c 00000000 		.space	4
 866              		.type	Player, %object
 867              		.size	Player, 1
 868              	Player:
 869 0010 00       		.space	1
 870              		.text
 871              	.Letext0:
 872              		.file 2 "Generated_Source\\PSoC5/cytypes.h"
 873              		.file 3 "Generated_Source\\PSoC5\\PRS.h"
 874              		.file 4 "Generated_Source\\PSoC5\\Refresh_Timer.h"
 875              		.file 5 "Generated_Source\\PSoC5\\PWM.h"
 876              		.file 6 "Generated_Source\\PSoC5\\LCD.h"